; Function Attrs: mustprogress uwtable
define void @_ZN6icu_7515LSTMBreakEngineC2EPKNS_8LSTMDataERKNS_10UnicodeSetER10UErrorCode(ptr noundef nonnull align 8 dereferenceable(224) %this, ptr noundef %data, ptr noundef nonnull align 8 dereferenceable(200) %set, ptr nocapture noundef nonnull readonly align 4 dereferenceable(4) %status) unnamed_addr #1 align 2 personality ptr @__gxx_personality_v0 {
entry:
  tail call void @_ZN6icu_7521DictionaryBreakEngineC2Ev(ptr noundef nonnull align 8 dereferenceable(208) %this)
  store ptr getelementptr inbounds ({ [10 x ptr] }, ptr @_ZTVN6icu_7515LSTMBreakEngineE, i64 0, i32 0, i64 2), ptr %this, align 8
  %fData = getelementptr inbounds i8, ptr %this, i64 208
  store ptr %data, ptr %fData, align 8
  %0 = load i32, ptr %status, align 4
  %cmp.i.i = icmp slt i32 %0, 1
  br i1 %cmp.i.i, label %if.end.i, label %invoke.cont

if.end.i:                                         ; preds = %entry
  %fType.i = getelementptr inbounds i8, ptr %data, i64 8
  %1 = load i32, ptr %fType.i, align 8
  switch i32 %1, label %sw.epilog.i [
    i32 1, label %sw.bb.i
    i32 2, label %sw.bb2.i
  ]

sw.bb.i:                                          ; preds = %if.end.i
  %call1.i = tail call noundef ptr @_ZN6icu_757UMemorynwEm(i64 noundef 16) #20
  %new.isnull.i = icmp eq ptr %call1.i, null
  br i1 %new.isnull.i, label %invoke.cont, label %new.notnull.i

new.notnull.i:                                    ; preds = %sw.bb.i
  %2 = load ptr, ptr %data, align 8
  %fDict.i.i.i = getelementptr inbounds i8, ptr %call1.i, i64 8
  store ptr %2, ptr %fDict.i.i.i, align 8
  store ptr getelementptr inbounds ({ [5 x ptr] }, ptr @_ZTVN6icu_7520CodePointsVectorizerE, i64 0, i32 0, i64 2), ptr %call1.i, align 8
  br label %invoke.cont

sw.bb2.i:                                         ; preds = %if.end.i
  %call3.i = tail call noundef ptr @_ZN6icu_757UMemorynwEm(i64 noundef 16) #20
  %new.isnull4.i = icmp eq ptr %call3.i, null
  br i1 %new.isnull4.i, label %invoke.cont, label %new.notnull5.i

new.notnull5.i:                                   ; preds = %sw.bb2.i
  %3 = load ptr, ptr %data, align 8
  %fDict.i.i3.i = getelementptr inbounds i8, ptr %call3.i, i64 8
  store ptr %3, ptr %fDict.i.i3.i, align 8
  store ptr getelementptr inbounds ({ [5 x ptr] }, ptr @_ZTVN6icu_7525GraphemeClusterVectorizerE, i64 0, i32 0, i64 2), ptr %call3.i, align 8
  br label %invoke.cont

sw.epilog.i:                                      ; preds = %if.end.i
  tail call void @abort() #22
  unreachable

invoke.cont:                                      ; preds = %new.notnull5.i, %sw.bb2.i, %new.notnull.i, %sw.bb.i, %entry
  %retval.0.i = phi ptr [ null, %entry ], [ null, %sw.bb.i ], [ %call1.i, %new.notnull.i ], [ %call3.i, %new.notnull5.i ], [ null, %sw.bb2.i ]
  %fVectorizer = getelementptr inbounds i8, ptr %this, i64 216
  store ptr %retval.0.i, ptr %fVectorizer, align 8
  %4 = load i32, ptr %status, align 4
  %cmp.i = icmp slt i32 %4, 1
  br i1 %cmp.i, label %if.end, label %if.then

if.then:                                          ; preds = %invoke.cont
  store ptr null, ptr %fData, align 8
  br label %invoke.cont6

lpad:                                             ; preds = %if.end
  %5 = landingpad { ptr, i32 }
          cleanup
  tail call void @_ZN6icu_7521DictionaryBreakEngineD2Ev(ptr noundef nonnull align 8 dereferenceable(208) %this) #20
  resume { ptr, i32 } %5

if.end:                                           ; preds = %invoke.cont
  %vtable = load ptr, ptr %this, align 8
  %vfn = getelementptr inbounds i8, ptr %vtable, i64 40
  %6 = load ptr, ptr %vfn, align 8
  invoke void %6(ptr noundef nonnull align 8 dereferenceable(208) %this, ptr noundef nonnull align 8 dereferenceable(200) %set)
          to label %invoke.cont6 unwind label %lpad

invoke.cont6:                                     ; preds = %if.end, %if.then
  ret void
}